target datalayout = "e-m:e-p270:32:32-p271:32:32-p272:64:64-i64:64-i128:128-f80:128-n8:16:32:64-S128"
target triple = "x86_64-pc-linux-gnu"

%struct.gz_state = type { %struct.gzFile_s, i32, i32, ptr, i32, i32, ptr, ptr, i32, i32, i64, i32, i32, i32, i32, i64, i32, i32, ptr, %struct.z_stream_s }
%struct.gzFile_s = type { i32, ptr, i64 }
%struct.z_stream_s = type { ptr, i32, i64, ptr, i32, i64, ptr, ptr, ptr, ptr, ptr, i32, i64, i64, i32 }

; Function Attrs: nounwind uwtable
define internal i32 @gz_skip(ptr noundef %0, i64 noundef %1) #0 {
  %3 = alloca i32, align 4
  %4 = alloca ptr, align 8
  %5 = alloca i64, align 8
  %6 = alloca i32, align 4
  %7 = alloca i32, align 4
  store ptr %0, ptr %4, align 8, !tbaa !8
  store i64 %1, ptr %5, align 8, !tbaa !35
  call void @llvm.lifetime.start.p0(i64 4, ptr %6) #8
  br label %8

8:                                                ; preds = %78, %2
  %9 = load i64, ptr %5, align 8, !tbaa !35
  %10 = icmp ne i64 %9, 0
  br i1 %10, label %11, label %79

11:                                               ; preds = %8
  %12 = load ptr, ptr %4, align 8, !tbaa !8
  %13 = getelementptr inbounds nuw %struct.gz_state, ptr %12, i32 0, i32 0
  %14 = getelementptr inbounds nuw %struct.gzFile_s, ptr %13, i32 0, i32 0
  %15 = load i32, ptr %14, align 8, !tbaa !23
  %16 = icmp ne i32 %15, 0
  br i1 %16, label %17, label %59

17:                                               ; preds = %11
  %18 = load ptr, ptr %4, align 8, !tbaa !8
  %19 = getelementptr inbounds nuw %struct.gz_state, ptr %18, i32 0, i32 0
  %20 = getelementptr inbounds nuw %struct.gzFile_s, ptr %19, i32 0, i32 0
  %21 = load i32, ptr %20, align 8, !tbaa !23
  %22 = zext i32 %21 to i64
  %23 = load i64, ptr %5, align 8, !tbaa !35
  %24 = icmp sgt i64 %22, %23
  br i1 %24, label %25, label %28

25:                                               ; preds = %17
  %26 = load i64, ptr %5, align 8, !tbaa !35
  %27 = trunc i64 %26 to i32
  br label %33

28:                                               ; preds = %17
  %29 = load ptr, ptr %4, align 8, !tbaa !8
  %30 = getelementptr inbounds nuw %struct.gz_state, ptr %29, i32 0, i32 0
  %31 = getelementptr inbounds nuw %struct.gzFile_s, ptr %30, i32 0, i32 0
  %32 = load i32, ptr %31, align 8, !tbaa !23
  br label %33

33:                                               ; preds = %28, %25
  %34 = phi i32 [ %27, %25 ], [ %32, %28 ]
  store i32 %34, ptr %6, align 4, !tbaa !9
  %35 = load i32, ptr %6, align 4, !tbaa !9
  %36 = load ptr, ptr %4, align 8, !tbaa !8
  %37 = getelementptr inbounds nuw %struct.gz_state, ptr %36, i32 0, i32 0
  %38 = getelementptr inbounds nuw %struct.gzFile_s, ptr %37, i32 0, i32 0
  %39 = load i32, ptr %38, align 8, !tbaa !23
  %40 = sub i32 %39, %35
  store i32 %40, ptr %38, align 8, !tbaa !23
  %41 = load i32, ptr %6, align 4, !tbaa !9
  %42 = load ptr, ptr %4, align 8, !tbaa !8
  %43 = getelementptr inbounds nuw %struct.gz_state, ptr %42, i32 0, i32 0
  %44 = getelementptr inbounds nuw %struct.gzFile_s, ptr %43, i32 0, i32 1
  %45 = load ptr, ptr %44, align 8, !tbaa !24
  %46 = zext i32 %41 to i64
  %47 = getelementptr inbounds nuw i8, ptr %45, i64 %46
  store ptr %47, ptr %44, align 8, !tbaa !24
  %48 = load i32, ptr %6, align 4, !tbaa !9
  %49 = zext i32 %48 to i64
  %50 = load ptr, ptr %4, align 8, !tbaa !8
  %51 = getelementptr inbounds nuw %struct.gz_state, ptr %50, i32 0, i32 0
  %52 = getelementptr inbounds nuw %struct.gzFile_s, ptr %51, i32 0, i32 2
  %53 = load i64, ptr %52, align 8, !tbaa !32
  %54 = add nsw i64 %53, %49
  store i64 %54, ptr %52, align 8, !tbaa !32
  %55 = load i32, ptr %6, align 4, !tbaa !9
  %56 = zext i32 %55 to i64
  %57 = load i64, ptr %5, align 8, !tbaa !35
  %58 = sub nsw i64 %57, %56
  store i64 %58, ptr %5, align 8, !tbaa !35
  br label %78

59:                                               ; preds = %11
  %60 = load ptr, ptr %4, align 8, !tbaa !8
  %61 = getelementptr inbounds nuw %struct.gz_state, ptr %60, i32 0, i32 11
  %62 = load i32, ptr %61, align 8, !tbaa !25
  %63 = icmp ne i32 %62, 0
  br i1 %63, label %64, label %71

64:                                               ; preds = %59
  %65 = load ptr, ptr %4, align 8, !tbaa !8
  %66 = getelementptr inbounds nuw %struct.gz_state, ptr %65, i32 0, i32 19
  %67 = getelementptr inbounds nuw %struct.z_stream_s, ptr %66, i32 0, i32 1
  %68 = load i32, ptr %67, align 8, !tbaa !36
  %69 = icmp eq i32 %68, 0
  br i1 %69, label %70, label %71

70:                                               ; preds = %64
  br label %79

71:                                               ; preds = %64, %59
  %72 = load ptr, ptr %4, align 8, !tbaa !8
  %73 = call i32 @gz_fetch(ptr noundef %72)
  %74 = icmp eq i32 %73, -1
  br i1 %74, label %75, label %76

75:                                               ; preds = %71
  store i32 -1, ptr %3, align 4
  store i32 1, ptr %7, align 4
  br label %80

76:                                               ; preds = %71
  br label %77

77:                                               ; preds = %76
  br label %78

78:                                               ; preds = %77, %33
  br label %8, !llvm.loop !37

79:                                               ; preds = %70, %8
  store i32 0, ptr %3, align 4
  store i32 1, ptr %7, align 4
  br label %80

80:                                               ; preds = %79, %75
  call void @llvm.lifetime.end.p0(i64 4, ptr %6) #8
  %81 = load i32, ptr %3, align 4
  ret i32 %81
}

; Function Attrs: nounwind uwtable
define ptr @MOZ_Z_gzgets(ptr noundef %0, ptr noundef %1, i32 noundef %2) #0 {
  %4 = alloca ptr, align 8
  %5 = alloca ptr, align 8
  %6 = alloca ptr, align 8
  %7 = alloca i32, align 4
  %8 = alloca i32, align 4
  %9 = alloca i32, align 4
  %10 = alloca ptr, align 8
  %11 = alloca ptr, align 8
  %12 = alloca ptr, align 8
  %13 = alloca i32, align 4
  store ptr %0, ptr %5, align 8, !tbaa !3
  store ptr %1, ptr %6, align 8, !tbaa !40
  store i32 %2, ptr %7, align 4, !tbaa !9
  call void @llvm.lifetime.start.p0(i64 4, ptr %8) #8
  call void @llvm.lifetime.start.p0(i64 4, ptr %9) #8
  call void @llvm.lifetime.start.p0(i64 8, ptr %10) #8
  call void @llvm.lifetime.start.p0(i64 8, ptr %11) #8
  call void @llvm.lifetime.start.p0(i64 8, ptr %12) #8
  %14 = load ptr, ptr %5, align 8, !tbaa !3
  %15 = icmp eq ptr %14, null
  br i1 %15, label %22, label %16

16:                                               ; preds = %3
  %17 = load ptr, ptr %6, align 8, !tbaa !40
  %18 = icmp eq ptr %17, null
  br i1 %18, label %22, label %19

19:                                               ; preds = %16
  %20 = load i32, ptr %7, align 4, !tbaa !9
  %21 = icmp slt i32 %20, 1
  br i1 %21, label %22, label %23

22:                                               ; preds = %19, %16, %3
  store ptr null, ptr %4, align 8
  store i32 1, ptr %13, align 4
  br label %172

23:                                               ; preds = %19
  %24 = load ptr, ptr %5, align 8, !tbaa !3
  store ptr %24, ptr %12, align 8, !tbaa !8
  %25 = load ptr, ptr %12, align 8, !tbaa !8
  %26 = getelementptr inbounds nuw %struct.gz_state, ptr %25, i32 0, i32 1
  %27 = load i32, ptr %26, align 8, !tbaa !13
  %28 = icmp ne i32 %27, 7247
  br i1 %28, label %39, label %29

29:                                               ; preds = %23
  %30 = load ptr, ptr %12, align 8, !tbaa !8
  %31 = getelementptr inbounds nuw %struct.gz_state, ptr %30, i32 0, i32 17
  %32 = load i32, ptr %31, align 4, !tbaa !20
  %33 = icmp ne i32 %32, 0
  br i1 %33, label %34, label %40

34:                                               ; preds = %29
  %35 = load ptr, ptr %12, align 8, !tbaa !8
  %36 = getelementptr inbounds nuw %struct.gz_state, ptr %35, i32 0, i32 17
  %37 = load i32, ptr %36, align 4, !tbaa !20
  %38 = icmp ne i32 %37, -5
  br i1 %38, label %39, label %40

39:                                               ; preds = %34, %23
  store ptr null, ptr %4, align 8
  store i32 1, ptr %13, align 4
  br label %172

40:                                               ; preds = %34, %29
  %41 = load ptr, ptr %12, align 8, !tbaa !8
  %42 = getelementptr inbounds nuw %struct.gz_state, ptr %41, i32 0, i32 16
  %43 = load i32, ptr %42, align 8, !tbaa !21
  %44 = icmp ne i32 %43, 0
  br i1 %44, label %45, label %56

45:                                               ; preds = %40
  %46 = load ptr, ptr %12, align 8, !tbaa !8
  %47 = getelementptr inbounds nuw %struct.gz_state, ptr %46, i32 0, i32 16
  store i32 0, ptr %47, align 8, !tbaa !21
  %48 = load ptr, ptr %12, align 8, !tbaa !8
  %49 = load ptr, ptr %12, align 8, !tbaa !8
  %50 = getelementptr inbounds nuw %struct.gz_state, ptr %49, i32 0, i32 15
  %51 = load i64, ptr %50, align 8, !tbaa !22
  %52 = call i32 @gz_skip(ptr noundef %48, i64 noundef %51)
  %53 = icmp eq i32 %52, -1
  br i1 %53, label %54, label %55

54:                                               ; preds = %45
  store ptr null, ptr %4, align 8
  store i32 1, ptr %13, align 4
  br label %172

55:                                               ; preds = %45
  br label %56

56:                                               ; preds = %55, %40
  %57 = load ptr, ptr %6, align 8, !tbaa !40
  store ptr %57, ptr %10, align 8, !tbaa !40
  %58 = load i32, ptr %7, align 4, !tbaa !9
  %59 = sub i32 %58, 1
  store i32 %59, ptr %8, align 4, !tbaa !9
  %60 = load i32, ptr %8, align 4, !tbaa !9
  %61 = icmp ne i32 %60, 0
  br i1 %61, label %62, label %163

62:                                               ; preds = %56
  br label %63

63:                                               ; preds = %160, %62
  %64 = load ptr, ptr %12, align 8, !tbaa !8
  %65 = getelementptr inbounds nuw %struct.gz_state, ptr %64, i32 0, i32 0
  %66 = getelementptr inbounds nuw %struct.gzFile_s, ptr %65, i32 0, i32 0
  %67 = load i32, ptr %66, align 8, !tbaa !23
  %68 = icmp eq i32 %67, 0
  br i1 %68, label %69, label %74

69:                                               ; preds = %63
  %70 = load ptr, ptr %12, align 8, !tbaa !8
  %71 = call i32 @gz_fetch(ptr noundef %70)
  %72 = icmp eq i32 %71, -1
  br i1 %72, label %73, label %74

73:                                               ; preds = %69
  store ptr null, ptr %4, align 8
  store i32 1, ptr %13, align 4
  br label %172

74:                                               ; preds = %69, %63
  %75 = load ptr, ptr %12, align 8, !tbaa !8
  %76 = getelementptr inbounds nuw %struct.gz_state, ptr %75, i32 0, i32 0
  %77 = getelementptr inbounds nuw %struct.gzFile_s, ptr %76, i32 0, i32 0
  %78 = load i32, ptr %77, align 8, !tbaa !23
  %79 = icmp eq i32 %78, 0
  br i1 %79, label %80, label %83

80:                                               ; preds = %74
  %81 = load ptr, ptr %12, align 8, !tbaa !8
  %82 = getelementptr inbounds nuw %struct.gz_state, ptr %81, i32 0, i32 12
  store i32 1, ptr %82, align 4, !tbaa !27
  br label %162

83:                                               ; preds = %74
  %84 = load ptr, ptr %12, align 8, !tbaa !8
  %85 = getelementptr inbounds nuw %struct.gz_state, ptr %84, i32 0, i32 0
  %86 = getelementptr inbounds nuw %struct.gzFile_s, ptr %85, i32 0, i32 0
  %87 = load i32, ptr %86, align 8, !tbaa !23
  %88 = load i32, ptr %8, align 4, !tbaa !9
  %89 = icmp ugt i32 %87, %88
  br i1 %89, label %90, label %92

90:                                               ; preds = %83
  %91 = load i32, ptr %8, align 4, !tbaa !9
  br label %97

92:                                               ; preds = %83
  %93 = load ptr, ptr %12, align 8, !tbaa !8
  %94 = getelementptr inbounds nuw %struct.gz_state, ptr %93, i32 0, i32 0
  %95 = getelementptr inbounds nuw %struct.gzFile_s, ptr %94, i32 0, i32 0
  %96 = load i32, ptr %95, align 8, !tbaa !23
  br label %97

97:                                               ; preds = %92, %90
  %98 = phi i32 [ %91, %90 ], [ %96, %92 ]
  store i32 %98, ptr %9, align 4, !tbaa !9
  %99 = load ptr, ptr %12, align 8, !tbaa !8
  %100 = getelementptr inbounds nuw %struct.gz_state, ptr %99, i32 0, i32 0
  %101 = getelementptr inbounds nuw %struct.gzFile_s, ptr %100, i32 0, i32 1
  %102 = load ptr, ptr %101, align 8, !tbaa !24
  %103 = load i32, ptr %9, align 4, !tbaa !9
  %104 = zext i32 %103 to i64
  %105 = call ptr @memchr(ptr noundef %102, i32 noundef 10, i64 noundef %104) #10
  store ptr %105, ptr %11, align 8, !tbaa !40
  %106 = load ptr, ptr %11, align 8, !tbaa !40
  %107 = icmp ne ptr %106, null
  br i1 %107, label %108, label %119

108:                                              ; preds = %97
  %109 = load ptr, ptr %11, align 8, !tbaa !40
  %110 = load ptr, ptr %12, align 8, !tbaa !8
  %111 = getelementptr inbounds nuw %struct.gz_state, ptr %110, i32 0, i32 0
  %112 = getelementptr inbounds nuw %struct.gzFile_s, ptr %111, i32 0, i32 1
  %113 = load ptr, ptr %112, align 8, !tbaa !24
  %114 = ptrtoint ptr %109 to i64
  %115 = ptrtoint ptr %113 to i64
  %116 = sub i64 %114, %115
  %117 = trunc i64 %116 to i32
  %118 = add i32 %117, 1
  store i32 %118, ptr %9, align 4, !tbaa !9
  br label %119

119:                                              ; preds = %108, %97
  %120 = load ptr, ptr %6, align 8, !tbaa !40
  %121 = load ptr, ptr %12, align 8, !tbaa !8
  %122 = getelementptr inbounds nuw %struct.gz_state, ptr %121, i32 0, i32 0
  %123 = getelementptr inbounds nuw %struct.gzFile_s, ptr %122, i32 0, i32 1
  %124 = load ptr, ptr %123, align 8, !tbaa !24
  %125 = load i32, ptr %9, align 4, !tbaa !9
  %126 = zext i32 %125 to i64
  call void @llvm.memcpy.p0.p0.i64(ptr align 1 %120, ptr align 1 %124, i64 %126, i1 false)
  %127 = load i32, ptr %9, align 4, !tbaa !9
  %128 = load ptr, ptr %12, align 8, !tbaa !8
  %129 = getelementptr inbounds nuw %struct.gz_state, ptr %128, i32 0, i32 0
  %130 = getelementptr inbounds nuw %struct.gzFile_s, ptr %129, i32 0, i32 0
  %131 = load i32, ptr %130, align 8, !tbaa !23
  %132 = sub i32 %131, %127
  store i32 %132, ptr %130, align 8, !tbaa !23
  %133 = load i32, ptr %9, align 4, !tbaa !9
  %134 = load ptr, ptr %12, align 8, !tbaa !8
  %135 = getelementptr inbounds nuw %struct.gz_state, ptr %134, i32 0, i32 0
  %136 = getelementptr inbounds nuw %struct.gzFile_s, ptr %135, i32 0, i32 1
  %137 = load ptr, ptr %136, align 8, !tbaa !24
  %138 = zext i32 %133 to i64
  %139 = getelementptr inbounds nuw i8, ptr %137, i64 %138
  store ptr %139, ptr %136, align 8, !tbaa !24
  %140 = load i32, ptr %9, align 4, !tbaa !9
  %141 = zext i32 %140 to i64
  %142 = load ptr, ptr %12, align 8, !tbaa !8
  %143 = getelementptr inbounds nuw %struct.gz_state, ptr %142, i32 0, i32 0
  %144 = getelementptr inbounds nuw %struct.gzFile_s, ptr %143, i32 0, i32 2
  %145 = load i64, ptr %144, align 8, !tbaa !32
  %146 = add nsw i64 %145, %141
  store i64 %146, ptr %144, align 8, !tbaa !32
  %147 = load i32, ptr %9, align 4, !tbaa !9
  %148 = load i32, ptr %8, align 4, !tbaa !9
  %149 = sub i32 %148, %147
  store i32 %149, ptr %8, align 4, !tbaa !9
  %150 = load i32, ptr %9, align 4, !tbaa !9
  %151 = load ptr, ptr %6, align 8, !tbaa !40
  %152 = zext i32 %150 to i64
  %153 = getelementptr inbounds nuw i8, ptr %151, i64 %152
  store ptr %153, ptr %6, align 8, !tbaa !40
  br label %154

154:                                              ; preds = %119
  %155 = load i32, ptr %8, align 4, !tbaa !9
  %156 = icmp ne i32 %155, 0
  br i1 %156, label %157, label %160

157:                                              ; preds = %154
  %158 = load ptr, ptr %11, align 8, !tbaa !40
  %159 = icmp eq ptr %158, null
  br label %160

160:                                              ; preds = %157, %154
  %161 = phi i1 [ false, %154 ], [ %159, %157 ]
  br i1 %161, label %63, label %162, !llvm.loop !49

162:                                              ; preds = %160, %80
  br label %163

163:                                              ; preds = %162, %56
  %164 = load ptr, ptr %6, align 8, !tbaa !40
  %165 = load ptr, ptr %10, align 8, !tbaa !40
  %166 = icmp eq ptr %164, %165
  br i1 %166, label %167, label %168

167:                                              ; preds = %163
  store ptr null, ptr %4, align 8
  store i32 1, ptr %13, align 4
  br label %172

168:                                              ; preds = %163
  %169 = load ptr, ptr %6, align 8, !tbaa !40
  %170 = getelementptr inbounds i8, ptr %169, i64 0
  store i8 0, ptr %170, align 1, !tbaa !47
  %171 = load ptr, ptr %10, align 8, !tbaa !40
  store ptr %171, ptr %4, align 8
  store i32 1, ptr %13, align 4
  br label %172

172:                                              ; preds = %168, %167, %73, %54, %39, %22
  call void @llvm.lifetime.end.p0(i64 8, ptr %12) #8
  call void @llvm.lifetime.end.p0(i64 8, ptr %11) #8
  call void @llvm.lifetime.end.p0(i64 8, ptr %10) #8
  call void @llvm.lifetime.end.p0(i64 4, ptr %9) #8
  call void @llvm.lifetime.end.p0(i64 4, ptr %8) #8
  %173 = load ptr, ptr %4, align 8
  ret ptr %173
}