; Function Attrs: nounwind uwtable
define noundef ptr @MOZ_Z_gzgets(ptr noundef %0, ptr noundef writeonly captures(address, ret: address, provenance) %1, i32 noundef %2) local_unnamed_addr #0 {
  %4 = icmp eq ptr %0, null
  %5 = icmp eq ptr %1, null
  %or.cond = or i1 %4, %5
  %6 = icmp slt i32 %2, 1
  %or.cond3 = or i1 %or.cond, %6
  br i1 %or.cond3, label %gz_skip.exit, label %7

7:                                                ; preds = %3
  %8 = getelementptr inbounds nuw i8, ptr %0, i64 24
  %9 = load i32, ptr %8, align 8, !tbaa !3
  %.not = icmp eq i32 %9, 7247
  br i1 %.not, label %10, label %gz_skip.exit

10:                                               ; preds = %7
  %11 = getelementptr inbounds nuw i8, ptr %0, i64 108
  %12 = load i32, ptr %11, align 4, !tbaa !14
  switch i32 %12, label %gz_skip.exit [
    i32 0, label %13
    i32 -5, label %13
  ]

13:                                               ; preds = %10, %10
  %14 = getelementptr inbounds nuw i8, ptr %0, i64 104
  %15 = load i32, ptr %14, align 8, !tbaa !15
  %.not62 = icmp eq i32 %15, 0
  br i1 %.not62, label %gz_skip.exit.thread, label %16

16:                                               ; preds = %13
  store i32 0, ptr %14, align 8, !tbaa !15
  %17 = getelementptr inbounds nuw i8, ptr %0, i64 96
  %18 = load i64, ptr %17, align 8, !tbaa !16
  %19 = getelementptr inbounds nuw i8, ptr %0, i64 128
  %.not21.i = icmp eq i64 %18, 0
  br i1 %.not21.i, label %gz_skip.exit.thread, label %.lr.ph.i

.lr.ph.i:                                         ; preds = %16
  %20 = getelementptr inbounds nuw i8, ptr %0, i64 8
  %21 = getelementptr inbounds nuw i8, ptr %0, i64 16
  %22 = getelementptr inbounds nuw i8, ptr %0, i64 80
  br label %23

23:                                               ; preds = %44, %.lr.ph.i
  %.01722.i = phi i64 [ %18, %.lr.ph.i ], [ %.1.i, %44 ]
  %24 = load i32, ptr %0, align 8, !tbaa !17
  %.not19.i = icmp eq i32 %24, 0
  br i1 %.not19.i, label %36, label %25

25:                                               ; preds = %23
  %26 = zext i32 %24 to i64
  %27 = tail call i64 @llvm.smin.i64(i64 %.01722.i, i64 %26)
  %28 = trunc i64 %27 to i32
  %29 = sub i32 %24, %28
  store i32 %29, ptr %0, align 8, !tbaa !17
  %30 = load ptr, ptr %20, align 8, !tbaa !18
  %31 = and i64 %27, 4294967295
  %32 = getelementptr inbounds nuw i8, ptr %30, i64 %31
  store ptr %32, ptr %20, align 8, !tbaa !18
  %33 = load i64, ptr %21, align 8, !tbaa !19
  %34 = add nsw i64 %33, %31
  store i64 %34, ptr %21, align 8, !tbaa !19
  %35 = sub nsw i64 %.01722.i, %31
  br label %44

36:                                               ; preds = %23
  %37 = load i32, ptr %22, align 8, !tbaa !20
  %.not20.i = icmp eq i32 %37, 0
  br i1 %.not20.i, label %41, label %38

38:                                               ; preds = %36
  %39 = load i32, ptr %19, align 8, !tbaa !21
  %40 = icmp eq i32 %39, 0
  br i1 %40, label %gz_skip.exit.thread, label %41

41:                                               ; preds = %38, %36
  %42 = tail call fastcc i32 @gz_fetch(ptr noundef nonnull %0)
  %43 = icmp eq i32 %42, -1
  br i1 %43, label %gz_skip.exit, label %44

44:                                               ; preds = %41, %25
  %.1.i = phi i64 [ %35, %25 ], [ %.01722.i, %41 ]
  %.not.i = icmp eq i64 %.1.i, 0
  br i1 %.not.i, label %gz_skip.exit.thread, label %23, !llvm.loop !22

gz_skip.exit.thread:                              ; preds = %38, %44, %16, %13
  %45 = add nsw i32 %2, -1
  %.not63 = icmp eq i32 %45, 0
  br i1 %.not63, label %gz_skip.exit, label %.preheader

.preheader:                                       ; preds = %gz_skip.exit.thread
  %46 = getelementptr inbounds nuw i8, ptr %0, i64 8
  %47 = getelementptr inbounds nuw i8, ptr %0, i64 16
  %.pre = load i32, ptr %0, align 8, !tbaa !17
  br label %48

48:                                               ; preds = %.preheader, %.thread
  %49 = phi i32 [ %69, %.thread ], [ %.pre, %.preheader ]
  %.050 = phi i32 [ %74, %.thread ], [ %45, %.preheader ]
  %.1 = phi ptr [ %75, %.thread ], [ %1, %.preheader ]
  %50 = icmp eq i32 %49, 0
  br i1 %50, label %51, label %.thread

51:                                               ; preds = %48
  %52 = tail call fastcc i32 @gz_fetch(ptr noundef %0)
  %53 = icmp eq i32 %52, -1
  br i1 %53, label %gz_skip.exit, label %54

54:                                               ; preds = %51
  %.pr = load i32, ptr %0, align 8, !tbaa !17
  %55 = icmp eq i32 %.pr, 0
  br i1 %55, label %56, label %.thread

56:                                               ; preds = %54
  %57 = getelementptr inbounds nuw i8, ptr %0, i64 84
  store i32 1, ptr %57, align 4, !tbaa !25
  br label %.loopexit

.thread:                                          ; preds = %48, %54
  %58 = phi i32 [ %.pr, %54 ], [ %49, %48 ]
  %.050. = tail call i32 @llvm.umin.i32(i32 %58, i32 %.050)
  %59 = load ptr, ptr %46, align 8, !tbaa !18
  %60 = zext i32 %.050. to i64
  %61 = tail call ptr @memchr(ptr noundef %59, i32 noundef 10, i64 noundef %60) #14
  %.not64 = icmp eq ptr %61, null
  %62 = ptrtoint ptr %61 to i64
  %63 = ptrtoint ptr %59 to i64
  %64 = sub i64 %62, %63
  %65 = trunc i64 %64 to i32
  %66 = add i32 %65, 1
  %.051 = select i1 %.not64, i32 %.050., i32 %66
  %67 = zext i32 %.051 to i64
  tail call void @llvm.memcpy.p0.p0.i64(ptr align 1 %.1, ptr align 1 %59, i64 %67, i1 false)
  %68 = load i32, ptr %0, align 8, !tbaa !17
  %69 = sub i32 %68, %.051
  store i32 %69, ptr %0, align 8, !tbaa !17
  %70 = load ptr, ptr %46, align 8, !tbaa !18
  %71 = getelementptr inbounds nuw i8, ptr %70, i64 %67
  store ptr %71, ptr %46, align 8, !tbaa !18
  %72 = load i64, ptr %47, align 8, !tbaa !19
  %73 = add nsw i64 %72, %67
  store i64 %73, ptr %47, align 8, !tbaa !19
  %74 = sub i32 %.050, %.051
  %75 = getelementptr inbounds nuw i8, ptr %.1, i64 %67
  %76 = icmp ne i32 %74, 0
  %77 = and i1 %.not64, %76
  br i1 %77, label %48, label %.loopexit, !llvm.loop !40

.loopexit:                                        ; preds = %.thread, %56
  %.049 = phi ptr [ %.1, %56 ], [ %75, %.thread ]
  %78 = icmp eq ptr %.049, %1
  br i1 %78, label %gz_skip.exit, label %79

79:                                               ; preds = %.loopexit
  store i8 0, ptr %.049, align 1, !tbaa !38
  br label %gz_skip.exit

gz_skip.exit:                                     ; preds = %41, %51, %gz_skip.exit.thread, %.loopexit, %7, %10, %3, %79
  %.0 = phi ptr [ %1, %79 ], [ null, %3 ], [ null, %10 ], [ null, %7 ], [ null, %.loopexit ], [ null, %gz_skip.exit.thread ], [ null, %51 ], [ null, %41 ]
  ret ptr %.0
}